; ModuleID = '23/1174.c'
source_filename = "23/1174.c"
target datalayout = "e-m:e-p270:32:32-p271:32:32-p272:64:64-i64:64-f80:128-n8:16:32:64-S128"
target triple = "x86_64-pc-linux-gnu"

@.str = private unnamed_addr constant [3 x i8] c"%s\00", align 1
@.str.1 = private unnamed_addr constant [4 x i8] c"%s \00", align 1

; Function Attrs: noinline nounwind uwtable
define dso_local void @main() #0 {
  %1 = alloca [50 x [100 x i8]], align 16
  %2 = alloca i8, align 1
  %3 = alloca i32, align 4
  %4 = alloca i32, align 4
  store i32 0, i32* %4, align 4
  store i32 0, i32* %3, align 4
  br label %5

5:                                                ; preds = %23, %0
  %6 = load i32, i32* %3, align 4
  %7 = icmp slt i32 %6, 100
  br i1 %7, label %8, label %26

8:                                                ; preds = %5
  %9 = load i32, i32* %3, align 4
  %10 = sext i32 %9 to i64
  %11 = getelementptr inbounds [50 x [100 x i8]], [50 x [100 x i8]]* %1, i64 0, i64 %10
  %12 = getelementptr inbounds [100 x i8], [100 x i8]* %11, i64 0, i64 0
  %13 = call i32 (i8*, ...) @__isoc99_scanf(i8* getelementptr inbounds ([3 x i8], [3 x i8]* @.str, i64 0, i64 0), i8* %12)
  %14 = call i32 @getchar()
  %15 = trunc i32 %14 to i8
  store i8 %15, i8* %2, align 1
  %16 = load i8, i8* %2, align 1
  %17 = sext i8 %16 to i32
  %18 = icmp ne i32 %17, 32
  br i1 %18, label %19, label %20

19:                                               ; preds = %8
  br label %26

20:                                               ; preds = %8
  %21 = load i32, i32* %4, align 4
  %22 = add nsw i32 %21, 1
  store i32 %22, i32* %4, align 4
  br label %23

23:                                               ; preds = %20
  %24 = load i32, i32* %3, align 4
  %25 = add nsw i32 %24, 1
  store i32 %25, i32* %3, align 4
  br label %5

26:                                               ; preds = %19, %5
  %27 = load i32, i32* %4, align 4
  store i32 %27, i32* %3, align 4
  br label %28

28:                                               ; preds = %37, %26
  %29 = load i32, i32* %3, align 4
  %30 = icmp sgt i32 %29, 0
  br i1 %30, label %31, label %40

31:                                               ; preds = %28
  %32 = load i32, i32* %3, align 4
  %33 = sext i32 %32 to i64
  %34 = getelementptr inbounds [50 x [100 x i8]], [50 x [100 x i8]]* %1, i64 0, i64 %33
  %35 = getelementptr inbounds [100 x i8], [100 x i8]* %34, i64 0, i64 0
  %36 = call i32 (i8*, ...) @printf(i8* getelementptr inbounds ([4 x i8], [4 x i8]* @.str.1, i64 0, i64 0), i8* %35)
  br label %37

37:                                               ; preds = %31
  %38 = load i32, i32* %3, align 4
  %39 = add nsw i32 %38, -1
  store i32 %39, i32* %3, align 4
  br label %28

40:                                               ; preds = %28
  %41 = getelementptr inbounds [50 x [100 x i8]], [50 x [100 x i8]]* %1, i64 0, i64 0
  %42 = getelementptr inbounds [100 x i8], [100 x i8]* %41, i64 0, i64 0
  %43 = call i32 (i8*, ...) @printf(i8* getelementptr inbounds ([3 x i8], [3 x i8]* @.str, i64 0, i64 0), i8* %42)
  ret void
}

declare dso_local i32 @__isoc99_scanf(i8*, ...) #1

declare dso_local i32 @getchar() #1

declare dso_local i32 @printf(i8*, ...) #1


!llvm.module.flags = !{!0}
!llvm.ident = !{!1}

!0 = !{i32 1, !"wchar_size", i32 4}
!1 = !{!"clang version 10.0.0-4ubuntu1 "}
