; ModuleID = 'source-C-CXX/22/1174.c'
source_filename = "source-C-CXX/22/1174.c"
target datalayout = "e-m:e-p270:32:32-p271:32:32-p272:64:64-i64:64-f80:128-n8:16:32:64-S128"
target triple = "x86_64-pc-linux-gnu"

%struct._IO_FILE = type { i32, i8*, i8*, i8*, i8*, i8*, i8*, i8*, i8*, i8*, i8*, i8*, %struct._IO_marker*, %struct._IO_FILE*, i32, i32, i64, i16, i8, [1 x i8], i8*, i64, %struct._IO_codecvt*, %struct._IO_wide_data*, %struct._IO_FILE*, i8*, i64, i32, [20 x i8] }
%struct._IO_marker = type opaque
%struct._IO_codecvt = type opaque
%struct._IO_wide_data = type opaque

@.str = private unnamed_addr constant [3 x i8] c"%s\00", align 1
@.str.1 = private unnamed_addr constant [4 x i8] c"%s \00", align 1
@stdin = external local_unnamed_addr global %struct._IO_FILE*, align 8

; Function Attrs: nofree nounwind sspstrong uwtable
define dso_local void @main() local_unnamed_addr #0 {
  %1 = alloca [50 x [100 x i8]], align 16
  %2 = getelementptr inbounds [50 x [100 x i8]], [50 x [100 x i8]]* %1, i64 0, i64 0, i64 0
  call void @llvm.lifetime.start.p0i8(i64 5000, i8* nonnull %2) #3
  br label %3

3:                                                ; preds = %0, %12
  %4 = phi i64 [ 0, %0 ], [ %14, %12 ]
  %5 = phi i32 [ 0, %0 ], [ %13, %12 ]
  %6 = getelementptr inbounds [50 x [100 x i8]], [50 x [100 x i8]]* %1, i64 0, i64 %4, i64 0
  %7 = call i32 (i8*, ...) @__isoc99_scanf(i8* getelementptr inbounds ([3 x i8], [3 x i8]* @.str, i64 0, i64 0), i8* nonnull %6)
  %8 = load %struct._IO_FILE*, %struct._IO_FILE** @stdin, align 8, !tbaa !5
  %9 = call i32 @getc(%struct._IO_FILE* %8) #3
  %10 = and i32 %9, 255
  %11 = icmp eq i32 %10, 32
  br i1 %11, label %12, label %16

12:                                               ; preds = %3
  %13 = add nuw nsw i32 %5, 1
  %14 = add nuw nsw i64 %4, 1
  %15 = icmp eq i64 %14, 100
  br i1 %15, label %18, label %3, !llvm.loop !9

16:                                               ; preds = %3
  %17 = icmp eq i32 %5, 0
  br i1 %17, label %27, label %18

18:                                               ; preds = %12, %16
  %19 = phi i32 [ %5, %16 ], [ 100, %12 ]
  %20 = zext i32 %19 to i64
  br label %21

21:                                               ; preds = %18, %21
  %22 = phi i64 [ %20, %18 ], [ %25, %21 ]
  %23 = getelementptr inbounds [50 x [100 x i8]], [50 x [100 x i8]]* %1, i64 0, i64 %22, i64 0
  %24 = call i32 (i8*, ...) @printf(i8* nonnull dereferenceable(1) getelementptr inbounds ([4 x i8], [4 x i8]* @.str.1, i64 0, i64 0), i8* nonnull %23)
  %25 = add nsw i64 %22, -1
  %26 = icmp sgt i64 %22, 1
  br i1 %26, label %21, label %27, !llvm.loop !11

27:                                               ; preds = %21, %16
  %28 = call i32 (i8*, ...) @printf(i8* nonnull dereferenceable(1) getelementptr inbounds ([3 x i8], [3 x i8]* @.str, i64 0, i64 0), i8* nonnull %2)
  call void @llvm.lifetime.end.p0i8(i64 5000, i8* nonnull %2) #3
  ret void
}

; Function Attrs: argmemonly mustprogress nofree nosync nounwind willreturn
declare void @llvm.lifetime.start.p0i8(i64 immarg, i8* nocapture) #1

; Function Attrs: nofree nounwind
declare noundef i32 @__isoc99_scanf(i8* nocapture noundef readonly, ...) local_unnamed_addr #2

; Function Attrs: nofree nounwind
declare noundef i32 @printf(i8* nocapture noundef readonly, ...) local_unnamed_addr #2

; Function Attrs: argmemonly mustprogress nofree nosync nounwind willreturn
declare void @llvm.lifetime.end.p0i8(i64 immarg, i8* nocapture) #1

; Function Attrs: nofree nounwind
declare noundef i32 @getc(%struct._IO_FILE* nocapture noundef) local_unnamed_addr #2


!llvm.module.flags = !{!0, !1, !2, !3}
!llvm.ident = !{!4}

!0 = !{i32 1, !"wchar_size", i32 4}
!1 = !{i32 7, !"PIC Level", i32 2}
!2 = !{i32 7, !"PIE Level", i32 2}
!3 = !{i32 7, !"uwtable", i32 1}
!4 = !{!"clang version 13.0.0"}
!5 = !{!6, !6, i64 0}
!6 = !{!"any pointer", !7, i64 0}
!7 = !{!"omnipotent char", !8, i64 0}
!8 = !{!"Simple C/C++ TBAA"}
!9 = distinct !{!9, !10}
!10 = !{!"llvm.loop.mustprogress"}
!11 = distinct !{!11, !10}
